target datalayout = "e-m:e-p270:32:32-p271:32:32-p272:64:64-i64:64-i128:128-f80:128-n8:16:32:64-S128"
target triple = "x86_64-pc-linux-gnu"

@.str.33 = private unnamed_addr constant [13 x i8] c"certificates\00", align 1

; Function Attrs: nounwind uwtable
define dso_local i32 @load_certs(ptr noundef %0, i32 noundef %1, ptr noundef %2, ptr noundef %3, ptr noundef %4) #0 {
  %6 = alloca ptr, align 8
  %7 = alloca i32, align 4
  %8 = alloca ptr, align 8
  %9 = alloca ptr, align 8
  %10 = alloca ptr, align 8
  %11 = alloca i32, align 4
  %12 = alloca i32, align 4
  store ptr %0, ptr %6, align 8, !tbaa !9
  store i32 %1, ptr %7, align 4, !tbaa !25
  store ptr %2, ptr %8, align 8, !tbaa !55
  store ptr %3, ptr %9, align 8, !tbaa !9
  store ptr %4, ptr %10, align 8, !tbaa !9
  call void @llvm.lifetime.start.p0(i64 4, ptr %11) #12
  call void @llvm.lifetime.start.p0(i64 4, ptr %12) #12
  %13 = load ptr, ptr %8, align 8, !tbaa !55
  %14 = load ptr, ptr %13, align 8, !tbaa !69
  %15 = icmp eq ptr %14, null
  %16 = zext i1 %15 to i32
  store i32 %16, ptr %12, align 4, !tbaa !25
  %17 = load ptr, ptr %10, align 8, !tbaa !9
  %18 = icmp eq ptr %17, null
  br i1 %18, label %19, label %20

19:                                               ; preds = %5
  store ptr @.str.33, ptr %10, align 8, !tbaa !9
  br label %20

20:                                               ; preds = %19, %5
  %21 = load ptr, ptr %6, align 8, !tbaa !9
  %22 = load i32, ptr %7, align 4, !tbaa !25
  %23 = load ptr, ptr %9, align 8, !tbaa !9
  %24 = load ptr, ptr %10, align 8, !tbaa !9
  %25 = load ptr, ptr %8, align 8, !tbaa !55
  %26 = call i32 @load_key_certs_crls(ptr noundef %21, i32 noundef 0, i32 noundef %22, ptr noundef %23, ptr noundef %24, i32 noundef 0, ptr noundef null, ptr noundef null, ptr noundef null, ptr noundef null, ptr noundef %25, ptr noundef null, ptr noundef null)
  store i32 %26, ptr %11, align 4, !tbaa !25
  %27 = load i32, ptr %11, align 4, !tbaa !25
  %28 = icmp ne i32 %27, 0
  br i1 %28, label %36, label %29

29:                                               ; preds = %20
  %30 = load i32, ptr %12, align 4, !tbaa !25
  %31 = icmp ne i32 %30, 0
  br i1 %31, label %32, label %36

32:                                               ; preds = %29
  %33 = load ptr, ptr %8, align 8, !tbaa !55
  %34 = load ptr, ptr %33, align 8, !tbaa !69
  call void @OSSL_STACK_OF_X509_free(ptr noundef %34)
  %35 = load ptr, ptr %8, align 8, !tbaa !55
  store ptr null, ptr %35, align 8, !tbaa !69
  br label %36

36:                                               ; preds = %32, %29, %20
  %37 = load i32, ptr %11, align 4, !tbaa !25
  call void @llvm.lifetime.end.p0(i64 4, ptr %12) #12
  call void @llvm.lifetime.end.p0(i64 4, ptr %11) #12
  ret i32 %37
}