; Function Attrs: nounwind uwtable
define dso_local range(i32 0, 2) i32 @load_certs(ptr noundef %0, i32 noundef %1, ptr noundef captures(address_is_null) %2, ptr noundef %3, ptr noundef %4) local_unnamed_addr #0 {
  %6 = load ptr, ptr %2, align 8, !tbaa !39
  %7 = icmp eq ptr %6, null
  %8 = icmp eq ptr %4, null
  %spec.store.select = select i1 %8, ptr @.str.33, ptr %4
  %9 = tail call i32 @load_key_certs_crls(ptr noundef %0, i32 noundef 0, i32 noundef %1, ptr noundef %3, ptr noundef nonnull %spec.store.select, i32 noundef 0, ptr noundef null, ptr noundef null, ptr noundef null, ptr noundef null, ptr noundef nonnull %2, ptr noundef null, ptr noundef null)
  %10 = icmp eq i32 %9, 0
  %or.cond = select i1 %10, i1 %7, i1 false
  br i1 %or.cond, label %11, label %13

11:                                               ; preds = %5
  %12 = load ptr, ptr %2, align 8, !tbaa !39
  tail call void @OSSL_STACK_OF_X509_free(ptr noundef %12) #27
  store ptr null, ptr %2, align 8, !tbaa !39
  br label %13

13:                                               ; preds = %11, %5
  ret i32 %9
}